; Function Attrs: nofree norecurse nosync nounwind memory(read, inaccessiblemem: none) uwtable
define zeroext i8 @TLSX_SNI_Status(ptr noundef readonly captures(address_is_null) %0, i8 noundef zeroext %1) local_unnamed_addr #8 {
  %.not6.i = icmp eq ptr %0, null
  br i1 %.not6.i, label %TLSX_SNI_Find.exit.thread, label %.lr.ph.i

.lr.ph.i:                                         ; preds = %2, %4
  %.07.i = phi ptr [ %6, %4 ], [ %0, %2 ]
  %3 = load i32, ptr %.07.i, align 8, !tbaa !60
  %.not5.i = icmp eq i32 %3, 0
  br i1 %.not5.i, label %7, label %4

4:                                                ; preds = %.lr.ph.i
  %5 = getelementptr inbounds nuw i8, ptr %.07.i, i64 24
  %6 = load ptr, ptr %5, align 8, !tbaa !63
  %.not.i = icmp eq ptr %6, null
  br i1 %.not.i, label %TLSX_SNI_Find.exit.thread, label %.lr.ph.i, !llvm.loop !101

7:                                                ; preds = %.lr.ph.i
  %8 = getelementptr inbounds nuw i8, ptr %.07.i, i64 8
  %9 = load ptr, ptr %8, align 8, !tbaa !82
  %.not6.i9 = icmp eq ptr %9, null
  br i1 %.not6.i9, label %TLSX_SNI_Find.exit.thread, label %.lr.ph.i10

.lr.ph.i10:                                       ; preds = %7, %11
  %.07.i11 = phi ptr [ %13, %11 ], [ %9, %7 ]
  %10 = load i8, ptr %.07.i11, align 8, !tbaa !88
  %.not5.i12 = icmp eq i8 %10, %1
  br i1 %.not5.i12, label %TLSX_SNI_Find.exit, label %11

11:                                               ; preds = %.lr.ph.i10
  %12 = getelementptr inbounds nuw i8, ptr %.07.i11, i64 16
  %13 = load ptr, ptr %12, align 8, !tbaa !85
  %.not.i13 = icmp eq ptr %13, null
  br i1 %.not.i13, label %TLSX_SNI_Find.exit.thread, label %.lr.ph.i10, !llvm.loop !104

TLSX_SNI_Find.exit:                               ; preds = %.lr.ph.i10
  %14 = getelementptr inbounds nuw i8, ptr %.07.i11, i64 24
  %15 = load i8, ptr %14, align 8, !tbaa !105
  br label %TLSX_SNI_Find.exit.thread

TLSX_SNI_Find.exit.thread:                        ; preds = %4, %11, %2, %7, %TLSX_SNI_Find.exit
  %.0 = phi i8 [ %15, %TLSX_SNI_Find.exit ], [ 0, %7 ], [ 0, %2 ], [ 0, %11 ], [ 0, %4 ]
  ret i8 %.0
}